; Function Attrs: mustprogress uwtable
define noundef i64 @_ZN6google10LogMessage12num_messagesEi(i32 noundef %0) local_unnamed_addr #0 align 2 personality ptr @__gxx_personality_v0 {
  %2 = tail call noundef i32 @pthread_mutex_lock(ptr noundef nonnull align 8 dereferenceable(40) @_ZN6googleL9log_mutexE) #49
  %.not.i.i = icmp eq i32 %2, 0
  br i1 %.not.i.i, label %_ZNSt10lock_guardISt5mutexEC2ERS0_.exit, label %3

3:                                                ; preds = %1
  tail call void @_ZSt20__throw_system_errori(i32 noundef %2) #52
  unreachable

_ZNSt10lock_guardISt5mutexEC2ERS0_.exit:          ; preds = %1
  %4 = sext i32 %0 to i64
  %5 = getelementptr inbounds [4 x i64], ptr @_ZN6google10LogMessage13num_messages_E, i64 0, i64 %4
  %6 = load i64, ptr %5, align 8, !tbaa !68
  %7 = tail call noundef i32 @pthread_mutex_unlock(ptr noundef nonnull align 8 dereferenceable(40) @_ZN6googleL9log_mutexE) #49
  ret i64 %6
}